; ModuleID = '38/1745.c'
source_filename = "38/1745.c"
target datalayout = "e-m:e-p270:32:32-p271:32:32-p272:64:64-i64:64-f80:128-n8:16:32:64-S128"
target triple = "x86_64-pc-linux-gnu"

@.str = private unnamed_addr constant [3 x i8] c"%d\00", align 1
@.str.1 = private unnamed_addr constant [4 x i8] c"%lf\00", align 1
@.str.2 = private unnamed_addr constant [7 x i8] c"%.5lf\0A\00", align 1

; Function Attrs: noinline nounwind uwtable
define dso_local i32 @main() #0 {
  %1 = alloca i32, align 4
  %2 = alloca i32, align 4
  %3 = alloca i32, align 4
  %4 = alloca i32, align 4
  %5 = alloca i32, align 4
  %6 = alloca i32, align 4
  %7 = alloca i32, align 4
  %8 = alloca i32, align 4
  %9 = alloca double, align 8
  %10 = alloca [110 x double], align 16
  %11 = alloca double, align 8
  %12 = alloca double, align 8
  %13 = alloca double, align 8
  %14 = alloca double, align 8
  store i32 0, i32* %1, align 4
  %15 = bitcast [110 x double]* %10 to i8*
  call void @llvm.memset.p0i8.i64(i8* align 16 %15, i8 0, i64 880, i1 false)
  %16 = call i32 (i8*, ...) @__isoc99_scanf(i8* getelementptr inbounds ([3 x i8], [3 x i8]* @.str, i64 0, i64 0), i32* %2)
  store i32 1, i32* %3, align 4
  br label %17

17:                                               ; preds = %77, %0
  %18 = load i32, i32* %3, align 4
  %19 = load i32, i32* %2, align 4
  %20 = icmp sle i32 %18, %19
  br i1 %20, label %21, label %80

21:                                               ; preds = %17
  %22 = call i32 (i8*, ...) @__isoc99_scanf(i8* getelementptr inbounds ([3 x i8], [3 x i8]* @.str, i64 0, i64 0), i32* %8)
  store double 0.000000e+00, double* %13, align 8
  store i32 1, i32* %4, align 4
  br label %23

23:                                               ; preds = %38, %21
  %24 = load i32, i32* %4, align 4
  %25 = load i32, i32* %8, align 4
  %26 = icmp sle i32 %24, %25
  br i1 %26, label %27, label %41

27:                                               ; preds = %23
  %28 = load i32, i32* %4, align 4
  %29 = sext i32 %28 to i64
  %30 = getelementptr inbounds [110 x double], [110 x double]* %10, i64 0, i64 %29
  %31 = call i32 (i8*, ...) @__isoc99_scanf(i8* getelementptr inbounds ([4 x i8], [4 x i8]* @.str.1, i64 0, i64 0), double* %30)
  %32 = load double, double* %13, align 8
  %33 = load i32, i32* %4, align 4
  %34 = sext i32 %33 to i64
  %35 = getelementptr inbounds [110 x double], [110 x double]* %10, i64 0, i64 %34
  %36 = load double, double* %35, align 8
  %37 = fadd double %32, %36
  store double %37, double* %13, align 8
  br label %38

38:                                               ; preds = %27
  %39 = load i32, i32* %4, align 4
  %40 = add nsw i32 %39, 1
  store i32 %40, i32* %4, align 4
  br label %23

41:                                               ; preds = %23
  %42 = load double, double* %13, align 8
  %43 = load i32, i32* %8, align 4
  %44 = sitofp i32 %43 to double
  %45 = fdiv double %42, %44
  store double %45, double* %14, align 8
  store double 0.000000e+00, double* %9, align 8
  store i32 1, i32* %4, align 4
  br label %46

46:                                               ; preds = %69, %41
  %47 = load i32, i32* %4, align 4
  %48 = load i32, i32* %8, align 4
  %49 = icmp sle i32 %47, %48
  br i1 %49, label %50, label %72

50:                                               ; preds = %46
  %51 = load double, double* %9, align 8
  %52 = load i32, i32* %4, align 4
  %53 = sext i32 %52 to i64
  %54 = getelementptr inbounds [110 x double], [110 x double]* %10, i64 0, i64 %53
  %55 = load double, double* %54, align 8
  %56 = load double, double* %14, align 8
  %57 = fsub double %55, %56
  %58 = load i32, i32* %4, align 4
  %59 = sext i32 %58 to i64
  %60 = getelementptr inbounds [110 x double], [110 x double]* %10, i64 0, i64 %59
  %61 = load double, double* %60, align 8
  %62 = load double, double* %14, align 8
  %63 = fsub double %61, %62
  %64 = fmul double %57, %63
  %65 = load i32, i32* %8, align 4
  %66 = sitofp i32 %65 to double
  %67 = fdiv double %64, %66
  %68 = fadd double %51, %67
  store double %68, double* %9, align 8
  br label %69

69:                                               ; preds = %50
  %70 = load i32, i32* %4, align 4
  %71 = add nsw i32 %70, 1
  store i32 %71, i32* %4, align 4
  br label %46

72:                                               ; preds = %46
  %73 = load double, double* %9, align 8
  %74 = call double @sqrt(double %73) #4
  store double %74, double* %11, align 8
  %75 = load double, double* %11, align 8
  %76 = call i32 (i8*, ...) @printf(i8* getelementptr inbounds ([7 x i8], [7 x i8]* @.str.2, i64 0, i64 0), double %75)
  br label %77

77:                                               ; preds = %72
  %78 = load i32, i32* %3, align 4
  %79 = add nsw i32 %78, 1
  store i32 %79, i32* %3, align 4
  br label %17

80:                                               ; preds = %17
  ret i32 0
}

; Function Attrs: argmemonly nounwind willreturn
declare void @llvm.memset.p0i8.i64(i8* nocapture writeonly, i8, i64, i1 immarg) #1

declare dso_local i32 @__isoc99_scanf(i8*, ...) #2

; Function Attrs: nounwind
declare dso_local double @sqrt(double) #3

declare dso_local i32 @printf(i8*, ...) #2


!llvm.module.flags = !{!0}
!llvm.ident = !{!1}

!0 = !{i32 1, !"wchar_size", i32 4}
!1 = !{!"clang version 10.0.0-4ubuntu1 "}
